; ModuleID = '6/2363.c'
source_filename = "6/2363.c"
target datalayout = "e-m:e-p270:32:32-p271:32:32-p272:64:64-i64:64-f80:128-n8:16:32:64-S128"
target triple = "x86_64-pc-linux-gnu"

@.str = private unnamed_addr constant [3 x i8] c"%d\00", align 1
@.str.1 = private unnamed_addr constant [5 x i8] c"%d%d\00", align 1
@.str.2 = private unnamed_addr constant [4 x i8] c"%d\0A\00", align 1

; Function Attrs: noinline nounwind uwtable
define dso_local i32 @main() #0 {
  %1 = alloca i32, align 4
  %2 = alloca i32, align 4
  %3 = alloca i32, align 4
  %4 = alloca i32, align 4
  %5 = alloca i32, align 4
  %6 = alloca i32, align 4
  %7 = alloca i32, align 4
  %8 = alloca i32, align 4
  %9 = alloca [100 x [100 x i32]], align 16
  %10 = alloca [100 x i32]*, align 8
  store i32 0, i32* %1, align 4
  %11 = call i32 (i8*, ...) @__isoc99_scanf(i8* getelementptr inbounds ([3 x i8], [3 x i8]* @.str, i64 0, i64 0), i32* %6)
  %12 = getelementptr inbounds [100 x [100 x i32]], [100 x [100 x i32]]* %9, i64 0, i64 0
  store [100 x i32]* %12, [100 x i32]** %10, align 8
  store i32 1, i32* %3, align 4
  br label %13

13:                                               ; preds = %125, %0
  %14 = load i32, i32* %3, align 4
  %15 = load i32, i32* %6, align 4
  %16 = icmp sle i32 %14, %15
  br i1 %16, label %17, label %128

17:                                               ; preds = %13
  store i32 0, i32* %2, align 4
  %18 = call i32 (i8*, ...) @__isoc99_scanf(i8* getelementptr inbounds ([5 x i8], [5 x i8]* @.str.1, i64 0, i64 0), i32* %7, i32* %8)
  store i32 0, i32* %5, align 4
  br label %19

19:                                               ; preds = %40, %17
  %20 = load i32, i32* %5, align 4
  %21 = load i32, i32* %7, align 4
  %22 = icmp slt i32 %20, %21
  br i1 %22, label %23, label %43

23:                                               ; preds = %19
  store i32 0, i32* %4, align 4
  br label %24

24:                                               ; preds = %36, %23
  %25 = load i32, i32* %4, align 4
  %26 = load i32, i32* %8, align 4
  %27 = icmp slt i32 %25, %26
  br i1 %27, label %28, label %39

28:                                               ; preds = %24
  %29 = load i32, i32* %5, align 4
  %30 = sext i32 %29 to i64
  %31 = getelementptr inbounds [100 x [100 x i32]], [100 x [100 x i32]]* %9, i64 0, i64 %30
  %32 = load i32, i32* %4, align 4
  %33 = sext i32 %32 to i64
  %34 = getelementptr inbounds [100 x i32], [100 x i32]* %31, i64 0, i64 %33
  %35 = call i32 (i8*, ...) @__isoc99_scanf(i8* getelementptr inbounds ([3 x i8], [3 x i8]* @.str, i64 0, i64 0), i32* %34)
  br label %36

36:                                               ; preds = %28
  %37 = load i32, i32* %4, align 4
  %38 = add nsw i32 %37, 1
  store i32 %38, i32* %4, align 4
  br label %24

39:                                               ; preds = %24
  br label %40

40:                                               ; preds = %39
  %41 = load i32, i32* %5, align 4
  %42 = add nsw i32 %41, 1
  store i32 %42, i32* %5, align 4
  br label %19

43:                                               ; preds = %19
  store i32 1, i32* %5, align 4
  br label %44

44:                                               ; preds = %69, %43
  %45 = load i32, i32* %5, align 4
  %46 = load i32, i32* %8, align 4
  %47 = sub nsw i32 %46, 1
  %48 = icmp slt i32 %45, %47
  br i1 %48, label %49, label %72

49:                                               ; preds = %44
  %50 = load [100 x i32]*, [100 x i32]** %10, align 8
  %51 = getelementptr inbounds [100 x i32], [100 x i32]* %50, i64 0, i64 0
  %52 = load i32, i32* %5, align 4
  %53 = sext i32 %52 to i64
  %54 = getelementptr inbounds i32, i32* %51, i64 %53
  %55 = load i32, i32* %54, align 4
  %56 = load [100 x i32]*, [100 x i32]** %10, align 8
  %57 = load i32, i32* %7, align 4
  %58 = sext i32 %57 to i64
  %59 = getelementptr inbounds [100 x i32], [100 x i32]* %56, i64 %58
  %60 = getelementptr inbounds [100 x i32], [100 x i32]* %59, i64 -1
  %61 = getelementptr inbounds [100 x i32], [100 x i32]* %60, i64 0, i64 0
  %62 = load i32, i32* %5, align 4
  %63 = sext i32 %62 to i64
  %64 = getelementptr inbounds i32, i32* %61, i64 %63
  %65 = load i32, i32* %64, align 4
  %66 = add nsw i32 %55, %65
  %67 = load i32, i32* %2, align 4
  %68 = add nsw i32 %67, %66
  store i32 %68, i32* %2, align 4
  br label %69

69:                                               ; preds = %49
  %70 = load i32, i32* %5, align 4
  %71 = add nsw i32 %70, 1
  store i32 %71, i32* %5, align 4
  br label %44

72:                                               ; preds = %44
  %73 = load i32, i32* %8, align 4
  %74 = icmp sgt i32 %73, 1
  br i1 %74, label %75, label %104

75:                                               ; preds = %72
  store i32 0, i32* %5, align 4
  br label %76

76:                                               ; preds = %100, %75
  %77 = load i32, i32* %5, align 4
  %78 = load i32, i32* %7, align 4
  %79 = icmp slt i32 %77, %78
  br i1 %79, label %80, label %103

80:                                               ; preds = %76
  %81 = load [100 x i32]*, [100 x i32]** %10, align 8
  %82 = load i32, i32* %5, align 4
  %83 = sext i32 %82 to i64
  %84 = getelementptr inbounds [100 x i32], [100 x i32]* %81, i64 %83
  %85 = getelementptr inbounds [100 x i32], [100 x i32]* %84, i64 0, i64 0
  %86 = load i32, i32* %85, align 4
  %87 = load [100 x i32]*, [100 x i32]** %10, align 8
  %88 = load i32, i32* %5, align 4
  %89 = sext i32 %88 to i64
  %90 = getelementptr inbounds [100 x i32], [100 x i32]* %87, i64 %89
  %91 = getelementptr inbounds [100 x i32], [100 x i32]* %90, i64 0, i64 0
  %92 = load i32, i32* %8, align 4
  %93 = sext i32 %92 to i64
  %94 = getelementptr inbounds i32, i32* %91, i64 %93
  %95 = getelementptr inbounds i32, i32* %94, i64 -1
  %96 = load i32, i32* %95, align 4
  %97 = add nsw i32 %86, %96
  %98 = load i32, i32* %2, align 4
  %99 = add nsw i32 %98, %97
  store i32 %99, i32* %2, align 4
  br label %100

100:                                              ; preds = %80
  %101 = load i32, i32* %5, align 4
  %102 = add nsw i32 %101, 1
  store i32 %102, i32* %5, align 4
  br label %76

103:                                              ; preds = %76
  br label %122

104:                                              ; preds = %72
  store i32 0, i32* %5, align 4
  br label %105

105:                                              ; preds = %118, %104
  %106 = load i32, i32* %5, align 4
  %107 = load i32, i32* %7, align 4
  %108 = icmp slt i32 %106, %107
  br i1 %108, label %109, label %121

109:                                              ; preds = %105
  %110 = load [100 x i32]*, [100 x i32]** %10, align 8
  %111 = load i32, i32* %5, align 4
  %112 = sext i32 %111 to i64
  %113 = getelementptr inbounds [100 x i32], [100 x i32]* %110, i64 %112
  %114 = getelementptr inbounds [100 x i32], [100 x i32]* %113, i64 0, i64 0
  %115 = load i32, i32* %114, align 4
  %116 = load i32, i32* %2, align 4
  %117 = add nsw i32 %116, %115
  store i32 %117, i32* %2, align 4
  br label %118

118:                                              ; preds = %109
  %119 = load i32, i32* %5, align 4
  %120 = add nsw i32 %119, 1
  store i32 %120, i32* %5, align 4
  br label %105

121:                                              ; preds = %105
  br label %122

122:                                              ; preds = %121, %103
  %123 = load i32, i32* %2, align 4
  %124 = call i32 (i8*, ...) @printf(i8* getelementptr inbounds ([4 x i8], [4 x i8]* @.str.2, i64 0, i64 0), i32 %123)
  br label %125

125:                                              ; preds = %122
  %126 = load i32, i32* %3, align 4
  %127 = add nsw i32 %126, 1
  store i32 %127, i32* %3, align 4
  br label %13

128:                                              ; preds = %13
  ret i32 0
}

declare dso_local i32 @__isoc99_scanf(i8*, ...) #1

declare dso_local i32 @printf(i8*, ...) #1


!llvm.module.flags = !{!0}
!llvm.ident = !{!1}

!0 = !{i32 1, !"wchar_size", i32 4}
!1 = !{!"clang version 10.0.0-4ubuntu1 "}
